target datalayout = "e-m:e-p270:32:32-p271:32:32-p272:64:64-i64:64-i128:128-f80:128-n8:16:32:64-S128"
target triple = "x86_64-pc-linux-gnu"

%struct.Abc_Ntk_t_ = type { i32, i32, ptr, ptr, ptr, ptr, ptr, ptr, ptr, ptr, ptr, ptr, ptr, [11 x i32], i32, i32, i32, i32, ptr, i32, ptr, ptr, i32, i32, i32, double, i32, %struct.Vec_Int_t_, ptr, ptr, ptr, ptr, ptr, float, i32, ptr, ptr, ptr, ptr, ptr, ptr, ptr, ptr, ptr, ptr, ptr, ptr, ptr, ptr, ptr, ptr, ptr, ptr, ptr, ptr, ptr, ptr }
%struct.Vec_Int_t_ = type { i32, i32, ptr }
%struct.Abc_Obj_t_ = type { ptr, ptr, i32, i32, %struct.Vec_Int_t_, %struct.Vec_Int_t_, %union.anon, %union.anon.0 }
%union.anon = type { ptr }
%union.anon.0 = type { ptr }
%struct.Vec_Ptr_t_ = type { i32, i32, ptr }

; Function Attrs: inlinehint nounwind uwtable
define internal void @Vec_PtrGrow(ptr noundef %0, i32 noundef %1) #3 {
  %3 = alloca ptr, align 8
  %4 = alloca i32, align 4
  store ptr %0, ptr %3, align 8, !tbaa !43
  store i32 %1, ptr %4, align 4, !tbaa !8
  %5 = load ptr, ptr %3, align 8, !tbaa !43
  %6 = getelementptr inbounds nuw %struct.Vec_Ptr_t_, ptr %5, i32 0, i32 0
  %7 = load i32, ptr %6, align 8, !tbaa !51
  %8 = load i32, ptr %4, align 4, !tbaa !8
  %9 = icmp sge i32 %7, %8
  br i1 %9, label %10, label %11

10:                                               ; preds = %2
  br label %36

11:                                               ; preds = %2
  %12 = load ptr, ptr %3, align 8, !tbaa !43
  %13 = getelementptr inbounds nuw %struct.Vec_Ptr_t_, ptr %12, i32 0, i32 2
  %14 = load ptr, ptr %13, align 8, !tbaa !47
  %15 = icmp ne ptr %14, null
  br i1 %15, label %16, label %24

16:                                               ; preds = %11
  %17 = load ptr, ptr %3, align 8, !tbaa !43
  %18 = getelementptr inbounds nuw %struct.Vec_Ptr_t_, ptr %17, i32 0, i32 2
  %19 = load ptr, ptr %18, align 8, !tbaa !47
  %20 = load i32, ptr %4, align 4, !tbaa !8
  %21 = sext i32 %20 to i64
  %22 = mul i64 8, %21
  %23 = call ptr @realloc(ptr noundef %19, i64 noundef %22) #9
  br label %29

24:                                               ; preds = %11
  %25 = load i32, ptr %4, align 4, !tbaa !8
  %26 = sext i32 %25 to i64
  %27 = mul i64 8, %26
  %28 = call noalias ptr @malloc(i64 noundef %27) #8
  br label %29

29:                                               ; preds = %24, %16
  %30 = phi ptr [ %23, %16 ], [ %28, %24 ]
  %31 = load ptr, ptr %3, align 8, !tbaa !43
  %32 = getelementptr inbounds nuw %struct.Vec_Ptr_t_, ptr %31, i32 0, i32 2
  store ptr %30, ptr %32, align 8, !tbaa !47
  %33 = load i32, ptr %4, align 4, !tbaa !8
  %34 = load ptr, ptr %3, align 8, !tbaa !43
  %35 = getelementptr inbounds nuw %struct.Vec_Ptr_t_, ptr %34, i32 0, i32 0
  store i32 %33, ptr %35, align 8, !tbaa !51
  br label %36

36:                                               ; preds = %29, %10
  ret void
}

; Function Attrs: inlinehint nounwind uwtable
define internal ptr @Abc_ObjFanin1(ptr noundef %0) #3 {
  %2 = alloca ptr, align 8
  store ptr %0, ptr %2, align 8, !tbaa !28
  %3 = load ptr, ptr %2, align 8, !tbaa !28
  %4 = getelementptr inbounds nuw %struct.Abc_Obj_t_, ptr %3, i32 0, i32 0
  %5 = load ptr, ptr %4, align 8, !tbaa !52
  %6 = getelementptr inbounds nuw %struct.Abc_Ntk_t_, ptr %5, i32 0, i32 5
  %7 = load ptr, ptr %6, align 8, !tbaa !27
  %8 = getelementptr inbounds nuw %struct.Vec_Ptr_t_, ptr %7, i32 0, i32 2
  %9 = load ptr, ptr %8, align 8, !tbaa !47
  %10 = load ptr, ptr %2, align 8, !tbaa !28
  %11 = getelementptr inbounds nuw %struct.Abc_Obj_t_, ptr %10, i32 0, i32 4
  %12 = getelementptr inbounds nuw %struct.Vec_Int_t_, ptr %11, i32 0, i32 2
  %13 = load ptr, ptr %12, align 8, !tbaa !54
  %14 = getelementptr inbounds i32, ptr %13, i64 1
  %15 = load i32, ptr %14, align 4, !tbaa !8
  %16 = sext i32 %15 to i64
  %17 = getelementptr inbounds ptr, ptr %9, i64 %16
  %18 = load ptr, ptr %17, align 8, !tbaa !48
  ret ptr %18
}

; Function Attrs: inlinehint nounwind uwtable
define internal ptr @Abc_ObjFanin0(ptr noundef %0) #3 {
  %2 = alloca ptr, align 8
  store ptr %0, ptr %2, align 8, !tbaa !28
  %3 = load ptr, ptr %2, align 8, !tbaa !28
  %4 = getelementptr inbounds nuw %struct.Abc_Obj_t_, ptr %3, i32 0, i32 0
  %5 = load ptr, ptr %4, align 8, !tbaa !52
  %6 = getelementptr inbounds nuw %struct.Abc_Ntk_t_, ptr %5, i32 0, i32 5
  %7 = load ptr, ptr %6, align 8, !tbaa !27
  %8 = getelementptr inbounds nuw %struct.Vec_Ptr_t_, ptr %7, i32 0, i32 2
  %9 = load ptr, ptr %8, align 8, !tbaa !47
  %10 = load ptr, ptr %2, align 8, !tbaa !28
  %11 = getelementptr inbounds nuw %struct.Abc_Obj_t_, ptr %10, i32 0, i32 4
  %12 = getelementptr inbounds nuw %struct.Vec_Int_t_, ptr %11, i32 0, i32 2
  %13 = load ptr, ptr %12, align 8, !tbaa !54
  %14 = getelementptr inbounds i32, ptr %13, i64 0
  %15 = load i32, ptr %14, align 4, !tbaa !8
  %16 = sext i32 %15 to i64
  %17 = getelementptr inbounds ptr, ptr %9, i64 %16
  %18 = load ptr, ptr %17, align 8, !tbaa !48
  ret ptr %18
}

; Function Attrs: inlinehint nounwind uwtable
define internal void @Vec_PtrPush(ptr noundef %0, ptr noundef %1) #3 {
  %3 = alloca ptr, align 8
  %4 = alloca ptr, align 8
  store ptr %0, ptr %3, align 8, !tbaa !43
  store ptr %1, ptr %4, align 8, !tbaa !48
  %5 = load ptr, ptr %3, align 8, !tbaa !43
  %6 = getelementptr inbounds nuw %struct.Vec_Ptr_t_, ptr %5, i32 0, i32 1
  %7 = load i32, ptr %6, align 4, !tbaa !45
  %8 = load ptr, ptr %3, align 8, !tbaa !43
  %9 = getelementptr inbounds nuw %struct.Vec_Ptr_t_, ptr %8, i32 0, i32 0
  %10 = load i32, ptr %9, align 8, !tbaa !51
  %11 = icmp eq i32 %7, %10
  br i1 %11, label %12, label %26

12:                                               ; preds = %2
  %13 = load ptr, ptr %3, align 8, !tbaa !43
  %14 = getelementptr inbounds nuw %struct.Vec_Ptr_t_, ptr %13, i32 0, i32 0
  %15 = load i32, ptr %14, align 8, !tbaa !51
  %16 = icmp slt i32 %15, 16
  br i1 %16, label %17, label %19

17:                                               ; preds = %12
  %18 = load ptr, ptr %3, align 8, !tbaa !43
  call void @Vec_PtrGrow(ptr noundef %18, i32 noundef 16)
  br label %25

19:                                               ; preds = %12
  %20 = load ptr, ptr %3, align 8, !tbaa !43
  %21 = load ptr, ptr %3, align 8, !tbaa !43
  %22 = getelementptr inbounds nuw %struct.Vec_Ptr_t_, ptr %21, i32 0, i32 0
  %23 = load i32, ptr %22, align 8, !tbaa !51
  %24 = mul nsw i32 2, %23
  call void @Vec_PtrGrow(ptr noundef %20, i32 noundef %24)
  br label %25

25:                                               ; preds = %19, %17
  br label %26

26:                                               ; preds = %25, %2
  %27 = load ptr, ptr %4, align 8, !tbaa !48
  %28 = load ptr, ptr %3, align 8, !tbaa !43
  %29 = getelementptr inbounds nuw %struct.Vec_Ptr_t_, ptr %28, i32 0, i32 2
  %30 = load ptr, ptr %29, align 8, !tbaa !47
  %31 = load ptr, ptr %3, align 8, !tbaa !43
  %32 = getelementptr inbounds nuw %struct.Vec_Ptr_t_, ptr %31, i32 0, i32 1
  %33 = load i32, ptr %32, align 4, !tbaa !45
  %34 = add nsw i32 %33, 1
  store i32 %34, ptr %32, align 4, !tbaa !45
  %35 = sext i32 %33 to i64
  %36 = getelementptr inbounds ptr, ptr %30, i64 %35
  store ptr %27, ptr %36, align 8, !tbaa !48
  ret void
}

; Function Attrs: inlinehint nounwind uwtable
define internal i32 @Abc_ObjIsNode(ptr noundef %0) #3 {
  %2 = alloca ptr, align 8
  store ptr %0, ptr %2, align 8, !tbaa !28
  %3 = load ptr, ptr %2, align 8, !tbaa !28
  %4 = getelementptr inbounds nuw %struct.Abc_Obj_t_, ptr %3, i32 0, i32 3
  %5 = load i32, ptr %4, align 4
  %6 = and i32 %5, 15
  %7 = icmp eq i32 %6, 7
  %8 = zext i1 %7 to i32
  ret i32 %8
}

; Function Attrs: nounwind uwtable
define i32 @Abc_NodeBalanceConeExor_rec(ptr noundef %0, ptr noundef %1, i32 noundef %2) #0 {
  %4 = alloca i32, align 4
  %5 = alloca ptr, align 8
  %6 = alloca ptr, align 8
  %7 = alloca i32, align 4
  %8 = alloca i32, align 4
  %9 = alloca i32, align 4
  %10 = alloca i32, align 4
  %11 = alloca i32, align 4
  store ptr %0, ptr %5, align 8, !tbaa !28
  store ptr %1, ptr %6, align 8, !tbaa !43
  store i32 %2, ptr %7, align 4, !tbaa !8
  call void @llvm.lifetime.start.p0(i64 4, ptr %8) #7
  call void @llvm.lifetime.start.p0(i64 4, ptr %9) #7
  call void @llvm.lifetime.start.p0(i64 4, ptr %10) #7
  store i32 0, ptr %10, align 4, !tbaa !8
  br label %12

12:                                               ; preds = %30, %3
  %13 = load i32, ptr %10, align 4, !tbaa !8
  %14 = load ptr, ptr %6, align 8, !tbaa !43
  %15 = getelementptr inbounds nuw %struct.Vec_Ptr_t_, ptr %14, i32 0, i32 1
  %16 = load i32, ptr %15, align 4, !tbaa !45
  %17 = icmp slt i32 %13, %16
  br i1 %17, label %18, label %33

18:                                               ; preds = %12
  %19 = load ptr, ptr %6, align 8, !tbaa !43
  %20 = getelementptr inbounds nuw %struct.Vec_Ptr_t_, ptr %19, i32 0, i32 2
  %21 = load ptr, ptr %20, align 8, !tbaa !47
  %22 = load i32, ptr %10, align 4, !tbaa !8
  %23 = sext i32 %22 to i64
  %24 = getelementptr inbounds ptr, ptr %21, i64 %23
  %25 = load ptr, ptr %24, align 8, !tbaa !48
  %26 = load ptr, ptr %5, align 8, !tbaa !28
  %27 = icmp eq ptr %25, %26
  br i1 %27, label %28, label %29

28:                                               ; preds = %18
  store i32 1, ptr %4, align 4
  store i32 1, ptr %11, align 4
  br label %76

29:                                               ; preds = %18
  br label %30

30:                                               ; preds = %29
  %31 = load i32, ptr %10, align 4, !tbaa !8
  %32 = add nsw i32 %31, 1
  store i32 %32, ptr %10, align 4, !tbaa !8
  br label %12, !llvm.loop !50

33:                                               ; preds = %12
  %34 = load i32, ptr %7, align 4, !tbaa !8
  %35 = icmp ne i32 %34, 0
  br i1 %35, label %50, label %36

36:                                               ; preds = %33
  %37 = load ptr, ptr %5, align 8, !tbaa !28
  %38 = getelementptr inbounds nuw %struct.Abc_Obj_t_, ptr %37, i32 0, i32 3
  %39 = load i32, ptr %38, align 4
  %40 = lshr i32 %39, 8
  %41 = and i32 %40, 1
  %42 = icmp ne i32 %41, 0
  br i1 %42, label %43, label %47

43:                                               ; preds = %36
  %44 = load ptr, ptr %5, align 8, !tbaa !28
  %45 = call i32 @Abc_ObjIsNode(ptr noundef %44)
  %46 = icmp ne i32 %45, 0
  br i1 %46, label %50, label %47

47:                                               ; preds = %43, %36
  %48 = load ptr, ptr %6, align 8, !tbaa !43
  %49 = load ptr, ptr %5, align 8, !tbaa !28
  call void @Vec_PtrPush(ptr noundef %48, ptr noundef %49)
  store i32 0, ptr %4, align 4
  store i32 1, ptr %11, align 4
  br label %76

50:                                               ; preds = %43, %33
  %51 = load ptr, ptr %5, align 8, !tbaa !28
  %52 = call ptr @Abc_ObjFanin0(ptr noundef %51)
  %53 = call ptr @Abc_ObjFanin0(ptr noundef %52)
  %54 = load ptr, ptr %6, align 8, !tbaa !43
  %55 = call i32 @Abc_NodeBalanceConeExor_rec(ptr noundef %53, ptr noundef %54, i32 noundef 0)
  store i32 %55, ptr %8, align 4, !tbaa !8
  %56 = load ptr, ptr %5, align 8, !tbaa !28
  %57 = call ptr @Abc_ObjFanin0(ptr noundef %56)
  %58 = call ptr @Abc_ObjFanin1(ptr noundef %57)
  %59 = load ptr, ptr %6, align 8, !tbaa !43
  %60 = call i32 @Abc_NodeBalanceConeExor_rec(ptr noundef %58, ptr noundef %59, i32 noundef 0)
  store i32 %60, ptr %9, align 4, !tbaa !8
  %61 = load i32, ptr %8, align 4, !tbaa !8
  %62 = icmp eq i32 %61, -1
  br i1 %62, label %66, label %63

63:                                               ; preds = %50
  %64 = load i32, ptr %9, align 4, !tbaa !8
  %65 = icmp eq i32 %64, -1
  br i1 %65, label %66, label %67

66:                                               ; preds = %63, %50
  store i32 -1, ptr %4, align 4
  store i32 1, ptr %11, align 4
  br label %76

67:                                               ; preds = %63
  %68 = load i32, ptr %8, align 4, !tbaa !8
  %69 = icmp ne i32 %68, 0
  br i1 %69, label %73, label %70

70:                                               ; preds = %67
  %71 = load i32, ptr %9, align 4, !tbaa !8
  %72 = icmp ne i32 %71, 0
  br label %73

73:                                               ; preds = %70, %67
  %74 = phi i1 [ true, %67 ], [ %72, %70 ]
  %75 = zext i1 %74 to i32
  store i32 %75, ptr %4, align 4
  store i32 1, ptr %11, align 4
  br label %76

76:                                               ; preds = %73, %66, %47, %28
  call void @llvm.lifetime.end.p0(i64 4, ptr %10) #7
  call void @llvm.lifetime.end.p0(i64 4, ptr %9) #7
  call void @llvm.lifetime.end.p0(i64 4, ptr %8) #7
  %77 = load i32, ptr %4, align 4
  ret i32 %77
}