; Function Attrs: nounwind uwtable
define range(i32 0, 2) i32 @Abc_NodeBalanceConeExor_rec(ptr noundef %0, ptr noundef %1, i32 noundef %2) local_unnamed_addr #0 {
  %4 = getelementptr inbounds nuw i8, ptr %1, i64 4
  %5 = load i32, ptr %4, align 4, !tbaa !24
  %6 = icmp sgt i32 %5, 0
  br i1 %6, label %.lr.ph, label %._crit_edge

.lr.ph:                                           ; preds = %3
  %7 = getelementptr inbounds nuw i8, ptr %1, i64 8
  %8 = load ptr, ptr %7, align 8, !tbaa !26
  %wide.trip.count = zext nneg i32 %5 to i64
  br label %10

9:                                                ; preds = %10
  %indvars.iv.next = add nuw nsw i64 %indvars.iv, 1
  %exitcond.not = icmp eq i64 %indvars.iv.next, %wide.trip.count
  br i1 %exitcond.not, label %._crit_edge, label %10, !llvm.loop !55

10:                                               ; preds = %.lr.ph, %9
  %indvars.iv = phi i64 [ 0, %.lr.ph ], [ %indvars.iv.next, %9 ]
  %11 = getelementptr inbounds nuw ptr, ptr %8, i64 %indvars.iv
  %12 = load ptr, ptr %11, align 8, !tbaa !27
  %13 = icmp eq ptr %12, %0
  br i1 %13, label %common.ret39, label %9

._crit_edge:                                      ; preds = %9, %3
  %.not = icmp eq i32 %2, 0
  br i1 %.not, label %14, label %48

14:                                               ; preds = %._crit_edge
  %15 = getelementptr inbounds nuw i8, ptr %0, i64 20
  %16 = load i32, ptr %15, align 4
  %17 = and i32 %16, 271
  %or.cond = icmp eq i32 %17, 263
  br i1 %or.cond, label %48, label %18

18:                                               ; preds = %14
  %19 = load i32, ptr %1, align 8, !tbaa !56
  %20 = icmp eq i32 %5, %19
  br i1 %20, label %21, label %.Vec_PtrGrow.exit11_crit_edge.i

.Vec_PtrGrow.exit11_crit_edge.i:                  ; preds = %18
  %.phi.trans.insert.i = getelementptr inbounds nuw i8, ptr %1, i64 8
  %.pre.i = load ptr, ptr %.phi.trans.insert.i, align 8, !tbaa !26
  br label %Vec_PtrPush.exit

21:                                               ; preds = %18
  %22 = icmp slt i32 %5, 16
  br i1 %22, label %23, label %31

23:                                               ; preds = %21
  %24 = getelementptr inbounds nuw i8, ptr %1, i64 8
  %25 = load ptr, ptr %24, align 8, !tbaa !26
  %.not9.i.i = icmp eq ptr %25, null
  br i1 %.not9.i.i, label %28, label %26

26:                                               ; preds = %23
  %27 = tail call dereferenceable_or_null(128) ptr @realloc(ptr noundef nonnull %25, i64 noundef 128) #15
  br label %Vec_PtrGrow.exit.i

28:                                               ; preds = %23
  %29 = tail call noalias dereferenceable_or_null(128) ptr @malloc(i64 noundef 128) #14
  br label %Vec_PtrGrow.exit.i

Vec_PtrGrow.exit.i:                               ; preds = %28, %26
  %30 = phi ptr [ %27, %26 ], [ %29, %28 ]
  store ptr %30, ptr %24, align 8, !tbaa !26
  store i32 16, ptr %1, align 8, !tbaa !56
  br label %Vec_PtrPush.exit

31:                                               ; preds = %21
  %32 = shl nuw nsw i32 %5, 1
  %33 = getelementptr inbounds nuw i8, ptr %1, i64 8
  %34 = load ptr, ptr %33, align 8, !tbaa !26
  %.not9.i10.i = icmp eq ptr %34, null
  %35 = zext nneg i32 %32 to i64
  %36 = shl nuw nsw i64 %35, 3
  br i1 %.not9.i10.i, label %39, label %37

37:                                               ; preds = %31
  %38 = tail call ptr @realloc(ptr noundef nonnull %34, i64 noundef %36) #15
  br label %41

39:                                               ; preds = %31
  %40 = tail call noalias ptr @malloc(i64 noundef %36) #14
  br label %41

41:                                               ; preds = %39, %37
  %42 = phi ptr [ %38, %37 ], [ %40, %39 ]
  store ptr %42, ptr %33, align 8, !tbaa !26
  store i32 %32, ptr %1, align 8, !tbaa !56
  br label %Vec_PtrPush.exit

Vec_PtrPush.exit:                                 ; preds = %.Vec_PtrGrow.exit11_crit_edge.i, %Vec_PtrGrow.exit.i, %41
  %43 = phi ptr [ %.pre.i, %.Vec_PtrGrow.exit11_crit_edge.i ], [ %42, %41 ], [ %30, %Vec_PtrGrow.exit.i ]
  %44 = load i32, ptr %4, align 4, !tbaa !24
  %45 = add nsw i32 %44, 1
  store i32 %45, ptr %4, align 4, !tbaa !24
  %46 = sext i32 %44 to i64
  %47 = getelementptr inbounds ptr, ptr %43, i64 %46
  store ptr %0, ptr %47, align 8, !tbaa !27
  br label %common.ret39

common.ret39:                                     ; preds = %Vec_PtrPush.exit, %10, %48
  %common.ret39.op = phi i32 [ %78, %48 ], [ 0, %Vec_PtrPush.exit ], [ 1, %10 ]
  ret i32 %common.ret39.op

48:                                               ; preds = %14, %._crit_edge
  %.val = load ptr, ptr %0, align 8, !tbaa !45
  %49 = getelementptr i8, ptr %0, i64 32
  %.val25 = load ptr, ptr %49, align 8, !tbaa !48
  %50 = getelementptr i8, ptr %.val, i64 32
  %.val.val = load ptr, ptr %50, align 8, !tbaa !3
  %.val25.val = load i32, ptr %.val25, align 4, !tbaa !30
  %51 = getelementptr i8, ptr %.val.val, i64 8
  %.val.val.val = load ptr, ptr %51, align 8, !tbaa !26
  %52 = sext i32 %.val25.val to i64
  %53 = getelementptr inbounds ptr, ptr %.val.val.val, i64 %52
  %54 = load ptr, ptr %53, align 8, !tbaa !27
  %.val26 = load ptr, ptr %54, align 8, !tbaa !45
  %55 = getelementptr i8, ptr %54, i64 32
  %.val27 = load ptr, ptr %55, align 8, !tbaa !48
  %56 = getelementptr i8, ptr %.val26, i64 32
  %.val26.val = load ptr, ptr %56, align 8, !tbaa !3
  %.val27.val = load i32, ptr %.val27, align 4, !tbaa !30
  %57 = getelementptr i8, ptr %.val26.val, i64 8
  %.val26.val.val = load ptr, ptr %57, align 8, !tbaa !26
  %58 = sext i32 %.val27.val to i64
  %59 = getelementptr inbounds ptr, ptr %.val26.val.val, i64 %58
  %60 = load ptr, ptr %59, align 8, !tbaa !27
  %61 = tail call i32 @Abc_NodeBalanceConeExor_rec(ptr noundef %60, ptr noundef nonnull %1, i32 noundef 0)
  %.val28 = load ptr, ptr %0, align 8, !tbaa !45
  %.val29 = load ptr, ptr %49, align 8, !tbaa !48
  %62 = getelementptr i8, ptr %.val28, i64 32
  %.val28.val = load ptr, ptr %62, align 8, !tbaa !3
  %.val29.val = load i32, ptr %.val29, align 4, !tbaa !30
  %63 = getelementptr i8, ptr %.val28.val, i64 8
  %.val28.val.val = load ptr, ptr %63, align 8, !tbaa !26
  %64 = sext i32 %.val29.val to i64
  %65 = getelementptr inbounds ptr, ptr %.val28.val.val, i64 %64
  %66 = load ptr, ptr %65, align 8, !tbaa !27
  %.val31 = load ptr, ptr %66, align 8, !tbaa !45
  %67 = getelementptr i8, ptr %66, i64 32
  %.val32 = load ptr, ptr %67, align 8, !tbaa !48
  %68 = getelementptr i8, ptr %.val31, i64 32
  %.val31.val = load ptr, ptr %68, align 8, !tbaa !3
  %69 = getelementptr i8, ptr %.val32, i64 4
  %.val32.val = load i32, ptr %69, align 4, !tbaa !30
  %70 = getelementptr i8, ptr %.val31.val, i64 8
  %.val31.val.val = load ptr, ptr %70, align 8, !tbaa !26
  %71 = sext i32 %.val32.val to i64
  %72 = getelementptr inbounds ptr, ptr %.val31.val.val, i64 %71
  %73 = load ptr, ptr %72, align 8, !tbaa !27
  %74 = tail call i32 @Abc_NodeBalanceConeExor_rec(ptr noundef %73, ptr noundef nonnull %1, i32 noundef 0)
  %75 = icmp ne i32 %61, 0
  %76 = icmp ne i32 %74, 0
  %77 = select i1 %75, i1 true, i1 %76
  %78 = zext i1 %77 to i32
  br label %common.ret39
}